target datalayout = "e-m:e-p270:32:32-p271:32:32-p272:64:64-i64:64-i128:128-f80:128-n8:16:32:64-S128"
target triple = "x86_64-pc-linux-gnu"

%"class.clang::SourceLocation" = type { i32 }
%"class.clang::OMPClause" = type { %"class.clang::SourceLocation", %"class.clang::SourceLocation", i32 }
%"class.clang::OMPClauseWithPreInit.base" = type <{ ptr, i32 }>
%"class.clang::OMPClauseWithPreInit" = type <{ ptr, i32, [4 x i8] }>
%"class.clang::OMPDistScheduleClause" = type { %"class.clang::OMPClause", [4 x i8], %"class.clang::OMPClauseWithPreInit.base", %"class.clang::SourceLocation", i32, %"class.clang::SourceLocation", %"class.clang::SourceLocation", ptr }

; Function Attrs: mustprogress nounwind uwtable
define linkonce_odr hidden noundef ptr @_ZN5clang20OMPClauseWithPreInit14getPreInitStmtEv(ptr noundef nonnull align 8 dereferenceable(12) %0) #0 comdat align 2 {
  %2 = alloca ptr, align 8
  store ptr %0, ptr %2, align 8
  %3 = load ptr, ptr %2, align 8
  %4 = getelementptr inbounds nuw %"class.clang::OMPClauseWithPreInit", ptr %3, i32 0, i32 0
  %5 = load ptr, ptr %4, align 8
  ret ptr %5
}

; Function Attrs: mustprogress nounwind uwtable
define linkonce_odr hidden noundef ptr @_ZN5clang21OMPDistScheduleClause12getChunkSizeEv(ptr noundef nonnull align 8 dereferenceable(56) %0) #0 comdat align 2 {
  %2 = alloca ptr, align 8
  store ptr %0, ptr %2, align 8
  %3 = load ptr, ptr %2, align 8
  %4 = getelementptr inbounds nuw %"class.clang::OMPDistScheduleClause", ptr %3, i32 0, i32 7
  %5 = load ptr, ptr %4, align 8
  ret ptr %5
}

; Function Attrs: mustprogress nounwind uwtable
define internal noundef zeroext i1 @_ZN5clang19RecursiveASTVisitorIN12_GLOBAL__N_116CacheInitializerEE25VisitOMPClauseWithPreInitEPNS_20OMPClauseWithPreInitE(ptr noundef nonnull align 1 dereferenceable(1) %0, ptr noundef %1) #0 align 2 {
  %3 = alloca i1, align 1
  %4 = alloca ptr, align 8
  %5 = alloca ptr, align 8
  store ptr %0, ptr %4, align 8
  store ptr %1, ptr %5, align 8
  %6 = load ptr, ptr %4, align 8
  br label %7

7:                                                ; preds = %2
  %8 = call noundef nonnull align 8 dereferenceable(8) ptr @_ZN5clang19RecursiveASTVisitorIN12_GLOBAL__N_116CacheInitializerEE10getDerivedEv(ptr noundef nonnull align 1 dereferenceable(1) %6)
  %9 = load ptr, ptr %5, align 8
  %10 = call noundef ptr @_ZN5clang20OMPClauseWithPreInit14getPreInitStmtEv(ptr noundef nonnull align 8 dereferenceable(12) %9)
  %11 = call noundef zeroext i1 @_ZN5clang19RecursiveASTVisitorIN12_GLOBAL__N_116CacheInitializerEE12TraverseStmtEPNS_4StmtEPN4llvm15SmallVectorImplINS6_14PointerIntPairIS5_Lj1EbNS6_21PointerLikeTypeTraitsIS5_EENS6_18PointerIntPairInfoIS5_Lj1ESA_EEEEEE(ptr noundef nonnull align 1 dereferenceable(1) %8, ptr noundef %10, ptr noundef null)
  br i1 %11, label %13, label %12

12:                                               ; preds = %7
  store i1 false, ptr %3, align 1
  br label %15

13:                                               ; preds = %7
  br label %14

14:                                               ; preds = %13
  store i1 true, ptr %3, align 1
  br label %15

15:                                               ; preds = %14, %12
  %16 = load i1, ptr %3, align 1
  ret i1 %16
}

; Function Attrs: mustprogress nounwind uwtable
define internal noundef nonnull align 8 dereferenceable(8) ptr @_ZN5clang19RecursiveASTVisitorIN12_GLOBAL__N_116CacheInitializerEE10getDerivedEv(ptr noundef nonnull align 1 dereferenceable(1) %0) #0 align 2 {
  %2 = alloca ptr, align 8
  store ptr %0, ptr %2, align 8
  %3 = load ptr, ptr %2, align 8
  ret ptr %3
}

; Function Attrs: mustprogress nounwind uwtable
define internal noundef zeroext i1 @_ZN5clang19RecursiveASTVisitorIN12_GLOBAL__N_116CacheInitializerEE26VisitOMPDistScheduleClauseEPNS_21OMPDistScheduleClauseE(ptr noundef nonnull align 1 dereferenceable(1) %0, ptr noundef %1) #0 align 2 {
  %3 = alloca i1, align 1
  %4 = alloca ptr, align 8
  %5 = alloca ptr, align 8
  store ptr %0, ptr %4, align 8
  store ptr %1, ptr %5, align 8
  %6 = load ptr, ptr %4, align 8
  br label %7

7:                                                ; preds = %2
  %8 = call noundef nonnull align 8 dereferenceable(8) ptr @_ZN5clang19RecursiveASTVisitorIN12_GLOBAL__N_116CacheInitializerEE10getDerivedEv(ptr noundef nonnull align 1 dereferenceable(1) %6)
  %9 = load ptr, ptr %5, align 8
  %10 = icmp eq ptr %9, null
  br i1 %10, label %13, label %11

11:                                               ; preds = %7
  %12 = getelementptr inbounds i8, ptr %9, i64 16
  br label %13

13:                                               ; preds = %11, %7
  %14 = phi ptr [ %12, %11 ], [ null, %7 ]
  %15 = call noundef zeroext i1 @_ZN5clang19RecursiveASTVisitorIN12_GLOBAL__N_116CacheInitializerEE25VisitOMPClauseWithPreInitEPNS_20OMPClauseWithPreInitE(ptr noundef nonnull align 1 dereferenceable(1) %8, ptr noundef %14)
  br i1 %15, label %17, label %16

16:                                               ; preds = %13
  store i1 false, ptr %3, align 1
  br label %27

17:                                               ; preds = %13
  br label %18

18:                                               ; preds = %17
  br label %19

19:                                               ; preds = %18
  %20 = call noundef nonnull align 8 dereferenceable(8) ptr @_ZN5clang19RecursiveASTVisitorIN12_GLOBAL__N_116CacheInitializerEE10getDerivedEv(ptr noundef nonnull align 1 dereferenceable(1) %6)
  %21 = load ptr, ptr %5, align 8
  %22 = call noundef ptr @_ZN5clang21OMPDistScheduleClause12getChunkSizeEv(ptr noundef nonnull align 8 dereferenceable(56) %21)
  %23 = call noundef zeroext i1 @_ZN5clang19RecursiveASTVisitorIN12_GLOBAL__N_116CacheInitializerEE12TraverseStmtEPNS_4StmtEPN4llvm15SmallVectorImplINS6_14PointerIntPairIS5_Lj1EbNS6_21PointerLikeTypeTraitsIS5_EENS6_18PointerIntPairInfoIS5_Lj1ESA_EEEEEE(ptr noundef nonnull align 1 dereferenceable(1) %20, ptr noundef %22, ptr noundef null)
  br i1 %23, label %25, label %24

24:                                               ; preds = %19
  store i1 false, ptr %3, align 1
  br label %27

25:                                               ; preds = %19
  br label %26

26:                                               ; preds = %25
  store i1 true, ptr %3, align 1
  br label %27

27:                                               ; preds = %26, %24, %16
  %28 = load i1, ptr %3, align 1
  ret i1 %28
}